target datalayout = "e-m:e-p270:32:32-p271:32:32-p272:64:64-i64:64-i128:128-f80:128-n8:16:32:64-S128"
target triple = "x86_64-unknown-linux-gnu"

%"class.node::quic::CID" = type { %"class.node::MemoryRetainer", %struct.ngtcp2_cid, ptr }
%"class.node::MemoryRetainer" = type { ptr }
%struct.ngtcp2_cid = type { i64, [20 x i8] }
%"class.std::__cxx11::basic_string" = type { %"struct.std::__cxx11::basic_string<char>::_Alloc_hider", i64, %union.anon }
%"struct.std::__cxx11::basic_string<char>::_Alloc_hider" = type { ptr }
%union.anon = type { i64, [8 x i8] }
%"class.std::allocator" = type { i8 }

; Function Attrs: mustprogress nounwind uwtable
define linkonce_odr dso_local noundef i64 @_ZN4node9arraysizeIcLm40EEEmRAT0__KT_(ptr noundef nonnull align 1 dereferenceable(40) %0) #4 comdat {
entry:
  %.addr = alloca ptr, align 8
  store ptr %0, ptr %.addr, align 8
  ret i64 40
}

; Function Attrs: mustprogress nounwind uwtable
define dso_local void @_ZNK4node4quic3CID8ToStringB5cxx11Ev(ptr noalias sret(%"class.std::__cxx11::basic_string") align 8 %agg.result, ptr noundef nonnull align 8 dereferenceable(48) %this) #4 align 2 {
entry:
  %result.ptr = alloca ptr, align 8
  %this.addr = alloca ptr, align 8
  %dest = alloca [40 x i8], align 16
  %written = alloca i64, align 8
  %ref.tmp = alloca %"class.std::allocator", align 1
  store ptr %agg.result, ptr %result.ptr, align 8
  store ptr %this, ptr %this.addr, align 8
  %this1 = load ptr, ptr %this.addr, align 8
  %ptr_ = getelementptr inbounds %"class.node::quic::CID", ptr %this1, i32 0, i32 2
  %0 = load ptr, ptr %ptr_, align 8
  %data = getelementptr inbounds %struct.ngtcp2_cid, ptr %0, i32 0, i32 1
  %arraydecay = getelementptr inbounds [20 x i8], ptr %data, i64 0, i64 0
  %ptr_2 = getelementptr inbounds %"class.node::quic::CID", ptr %this1, i32 0, i32 2
  %1 = load ptr, ptr %ptr_2, align 8
  %datalen = getelementptr inbounds %struct.ngtcp2_cid, ptr %1, i32 0, i32 0
  %2 = load i64, ptr %datalen, align 8
  %arraydecay3 = getelementptr inbounds [40 x i8], ptr %dest, i64 0, i64 0
  %call = call noundef i64 @_ZN4node9arraysizeIcLm40EEEmRAT0__KT_(ptr noundef nonnull align 1 dereferenceable(40) %dest)
  %call4 = call noundef i64 @_ZN4node11StringBytes10hex_encodeEPKcmPcm(ptr noundef %arraydecay, i64 noundef %2, ptr noundef %arraydecay3, i64 noundef %call)
  store i64 %call4, ptr %written, align 8
  %arraydecay5 = getelementptr inbounds [40 x i8], ptr %dest, i64 0, i64 0
  %3 = load i64, ptr %written, align 8
  call void @_ZNSaIcEC1Ev(ptr noundef nonnull align 1 dereferenceable(1) %ref.tmp) #3
  call void @_ZNSt7__cxx1112basic_stringIcSt11char_traitsIcESaIcEEC1EPKcmRKS3_(ptr noundef nonnull align 8 dereferenceable(32) %agg.result, ptr noundef %arraydecay5, i64 noundef %3, ptr noundef nonnull align 1 dereferenceable(1) %ref.tmp)
  call void @_ZNSaIcED1Ev(ptr noundef nonnull align 1 dereferenceable(1) %ref.tmp) #3
  ret void
}