; Function Attrs: mustprogress nounwind uwtable
define dso_local void @_ZNK4node4quic3CID8ToStringB5cxx11Ev(ptr noalias sret(%"class.std::__cxx11::basic_string") align 8 %agg.result, ptr nocapture noundef nonnull readonly align 8 dereferenceable(48) %this) local_unnamed_addr #4 align 2 {
entry:
  %dest = alloca [40 x i8], align 16
  %ref.tmp = alloca %"class.std::allocator", align 1
  %ptr_ = getelementptr inbounds i8, ptr %this, i64 40
  %0 = load ptr, ptr %ptr_, align 8
  %data = getelementptr inbounds i8, ptr %0, i64 8
  %1 = load i64, ptr %0, align 8
  %call4 = call noundef i64 @_ZN4node11StringBytes10hex_encodeEPKcmPcm(ptr noundef nonnull %data, i64 noundef %1, ptr noundef nonnull %dest, i64 noundef 40) #12
  call void @_ZNSaIcEC1Ev(ptr noundef nonnull align 1 dereferenceable(1) %ref.tmp) #12
  call void @_ZNSt7__cxx1112basic_stringIcSt11char_traitsIcESaIcEEC1EPKcmRKS3_(ptr noundef nonnull align 8 dereferenceable(32) %agg.result, ptr noundef nonnull %dest, i64 noundef %call4, ptr noundef nonnull align 1 dereferenceable(1) %ref.tmp) #12
  call void @_ZNSaIcED1Ev(ptr noundef nonnull align 1 dereferenceable(1) %ref.tmp) #12
  ret void
}